(i__main__
LogFile
p0
(dp1
S'_installed_files'
p2
(dp3
S'../../Trigger/TrigHypothesis/TrigJetHypo/genConf/TrigJetHypo'
p4
(dp5
S'../../../Trigger/TrigHypothesis/TrigJetHypo/genConf/TrigJetHypo/TrigJetHypoConf.py'
p6
S'../../../../InstallArea/python/TrigJetHypo/TrigJetHypoConf.py'
p7
ssS'../../../../../../../atlas/software/builds/nightlies/devval/GAUDI/rel_5/GaudiPolicy/cmt/fragments/__init__.py'
p8
S'../../../../InstallArea/python/TrigJetHypo/__init__.py'
p9
ssb.