(i__main__
LogFile
p0
(dp1
S'_installed_files'
p2
(dp3
S'../../Trigger/TrigHypothesis/TrigJetHypo/genConf/TrigJetHypo'
p4
(dp5
S'../../../Trigger/TrigHypothesis/TrigJetHypo/genConf/TrigJetHypo/TrigJetHypoConf.py'
p6
S'../../../../InstallArea/python/TrigJetHypo/TrigJetHypoConf.py'
p7
ssS'../../../../../../../atlas/software/builds/GAUDI/v25r3p1/GaudiPolicy/cmt/fragments/__init__.py'
p8
S'../../../../InstallArea/python/TrigJetHypo/__init__.py'
p9
sS'../../../../../../../atlas/software/builds/nightlies/dev/GAUDI/rel_2/GaudiPolicy/cmt/fragments/__init__.py'
p10
S'../../../../InstallArea/python/TrigJetHypo/__init__.py'
p11
ssb.