(i__main__
LogFile
p0
(dp1
S'_installed_files'
p2
(dp3
S'../../Trigger/TrigAlgorithms/TrigHLTJetHemisphereRec/genConf/TrigHLTJetHemisphereRec'
p4
(dp5
S'../../../Trigger/TrigAlgorithms/TrigHLTJetHemisphereRec/genConf/TrigHLTJetHemisphereRec/TrigHLTJetHemisphereRecConf.py'
p6
S'../../../../InstallArea/python/TrigHLTJetHemisphereRec/TrigHLTJetHemisphereRecConf.py'
p7
sS'../../../Trigger/TrigAlgorithms/TrigHLTJetHemisphereRec/genConf/TrigHLTJetHemisphereRec/TrigHLTJetHemisphereRec_confDb.py'
p8
S'../../../../InstallArea/python/TrigHLTJetHemisphereRec/TrigHLTJetHemisphereRec_confDb.py'
p9
ssS'../../../../../../../atlas/software/builds/nightlies/devval/GAUDI/rel_5/GaudiPolicy/cmt/fragments/__init__.py'
p10
S'../../../../InstallArea/python/TrigHLTJetHemisphereRec/__init__.py'
p11
sS'../../../../../../../atlas/software/builds/GAUDI/v24r1p2-lcg67b/GaudiPolicy/cmt/fragments/__init__.py'
p12
S'../../../../InstallArea/python/TrigHLTJetHemisphereRec/__init__.py'
p13
ssb.