(i__main__
LogFile
p0
(dp1
S'_installed_files'
p2
(dp3
S'../../../../../../../atlas/software/builds/nightlies/dev/GAUDI/rel_2/GaudiPolicy/cmt/fragments/__init__.py'
p4
S'../../../../InstallArea/python/TrigHLTJetHemisphereRec/__init__.py'
p5
sS'../../../../../../../atlas/software/builds/GAUDI/v25r3p1/GaudiPolicy/cmt/fragments/__init__.py'
p6
S'../../../../InstallArea/python/TrigHLTJetHemisphereRec/__init__.py'
p7
sS'../../Trigger/TrigAlgorithms/TrigHLTJetHemisphereRec/genConf/TrigHLTJetHemisphereRec'
p8
(dp9
S'../../../Trigger/TrigAlgorithms/TrigHLTJetHemisphereRec/genConf/TrigHLTJetHemisphereRec/TrigHLTJetHemisphereRecConf.py'
p10
S'../../../../InstallArea/python/TrigHLTJetHemisphereRec/TrigHLTJetHemisphereRecConf.py'
p11
sS'../../../Trigger/TrigAlgorithms/TrigHLTJetHemisphereRec/genConf/TrigHLTJetHemisphereRec/TrigHLTJetHemisphereRec_confDb.py'
p12
S'../../../../InstallArea/python/TrigHLTJetHemisphereRec/TrigHLTJetHemisphereRec_confDb.py'
p13
ssS'../../../../../../../atlas/software/builds/nightlies/devval/GAUDI/rel_5/GaudiPolicy/cmt/fragments/__init__.py'
p14
S'../../../../InstallArea/python/TrigHLTJetHemisphereRec/__init__.py'
p15
sS'../../../../../../../atlas/software/builds/GAUDI/v24r1p2-lcg67b/GaudiPolicy/cmt/fragments/__init__.py'
p16
S'../../../../InstallArea/python/TrigHLTJetHemisphereRec/__init__.py'
p17
ssb.